target datalayout = "e-m:e-p270:32:32-p271:32:32-p272:64:64-i64:64-i128:128-f80:128-n8:16:32:64-S128"
target triple = "x86_64-pc-linux-gnu"

%struct.psa_key_attributes_s = type { %struct.psa_core_key_attributes_t, ptr, i64 }
%struct.psa_core_key_attributes_t = type { i16, i16, i32, i32, %struct.psa_key_policy_s, i16 }
%struct.psa_key_policy_s = type { i32, i32, i32 }

; Function Attrs: nounwind uwtable
define internal i32 @psa_get_key_lifetime(ptr noundef %0) #0 {
  %2 = alloca ptr, align 8
  store ptr %0, ptr %2, align 8
  %3 = load ptr, ptr %2, align 8
  %4 = getelementptr inbounds %struct.psa_key_attributes_s, ptr %3, i32 0, i32 0
  %5 = getelementptr inbounds %struct.psa_core_key_attributes_t, ptr %4, i32 0, i32 2
  %6 = load i32, ptr %5, align 4
  ret i32 %6
}

; Function Attrs: nounwind uwtable
define hidden i32 @psa_driver_wrapper_import_key(ptr noundef %0, ptr noundef %1, i64 noundef %2, ptr noundef %3, i64 noundef %4, ptr noundef %5, ptr noundef %6) #0 {
  %8 = alloca i32, align 4
  %9 = alloca ptr, align 8
  %10 = alloca ptr, align 8
  %11 = alloca i64, align 8
  %12 = alloca ptr, align 8
  %13 = alloca i64, align 8
  %14 = alloca ptr, align 8
  %15 = alloca ptr, align 8
  %16 = alloca i32, align 4
  %17 = alloca i32, align 4
  store ptr %0, ptr %9, align 8
  store ptr %1, ptr %10, align 8
  store i64 %2, ptr %11, align 8
  store ptr %3, ptr %12, align 8
  store i64 %4, ptr %13, align 8
  store ptr %5, ptr %14, align 8
  store ptr %6, ptr %15, align 8
  store i32 -151, ptr %16, align 4
  %18 = load ptr, ptr %9, align 8
  %19 = call i32 @psa_get_key_lifetime(ptr noundef %18)
  %20 = lshr i32 %19, 8
  store i32 %20, ptr %17, align 4
  %21 = load i32, ptr %17, align 4
  switch i32 %21, label %31 [
    i32 0, label %22
  ]

22:                                               ; preds = %7
  %23 = load ptr, ptr %9, align 8
  %24 = load ptr, ptr %10, align 8
  %25 = load i64, ptr %11, align 8
  %26 = load ptr, ptr %12, align 8
  %27 = load i64, ptr %13, align 8
  %28 = load ptr, ptr %14, align 8
  %29 = load ptr, ptr %15, align 8
  %30 = call i32 @psa_import_key_into_slot(ptr noundef %23, ptr noundef %24, i64 noundef %25, ptr noundef %26, i64 noundef %27, ptr noundef %28, ptr noundef %29)
  store i32 %30, ptr %8, align 4
  br label %32

31:                                               ; preds = %7
  store i32 -135, ptr %8, align 4
  br label %32

32:                                               ; preds = %31, %22
  %33 = load i32, ptr %8, align 4
  ret i32 %33
}