; Function Attrs: nounwind uwtable
define hidden i32 @psa_driver_wrapper_import_key(ptr noundef %0, ptr noundef %1, i64 noundef %2, ptr noundef %3, i64 noundef %4, ptr noundef %5, ptr noundef %6) local_unnamed_addr #1 {
  %8 = getelementptr i8, ptr %0, i64 4
  %.val = load i32, ptr %8, align 4
  %cond = icmp ult i32 %.val, 256
  br i1 %cond, label %9, label %11

9:                                                ; preds = %7
  %10 = tail call i32 @psa_import_key_into_slot(ptr noundef nonnull %0, ptr noundef %1, i64 noundef %2, ptr noundef %3, i64 noundef %4, ptr noundef %5, ptr noundef %6) #5
  br label %11

11:                                               ; preds = %7, %9
  %.0 = phi i32 [ %10, %9 ], [ -135, %7 ]
  ret i32 %.0
}